target datalayout = "e-m:e-p270:32:32-p271:32:32-p272:64:64-i64:64-i128:128-f80:128-n8:16:32:64-S128"
target triple = "x86_64-pc-linux-gnu"

%struct.If_Obj_t_ = type { i32, i32, i32, i32, i32, i32, ptr, ptr, ptr, float, float, float, %union.anon, ptr, %struct.If_Cut_t_ }
%union.anon = type { ptr }
%struct.If_Cut_t_ = type <{ float, float, float, float, i32, i32, i32, i64, [0 x i32] }>

; Function Attrs: inlinehint nounwind uwtable
define internal ptr @If_ObjFanin1(ptr noundef %0) #3 {
  %2 = alloca ptr, align 8
  store ptr %0, ptr %2, align 8, !tbaa !41
  %3 = load ptr, ptr %2, align 8, !tbaa !41
  %4 = getelementptr inbounds nuw %struct.If_Obj_t_, ptr %3, i32 0, i32 7
  %5 = load ptr, ptr %4, align 8, !tbaa !56
  ret ptr %5
}

; Function Attrs: inlinehint nounwind uwtable
define internal ptr @If_ObjFanin0(ptr noundef %0) #3 {
  %2 = alloca ptr, align 8
  store ptr %0, ptr %2, align 8, !tbaa !41
  %3 = load ptr, ptr %2, align 8, !tbaa !41
  %4 = getelementptr inbounds nuw %struct.If_Obj_t_, ptr %3, i32 0, i32 6
  %5 = load ptr, ptr %4, align 8, !tbaa !55
  ret ptr %5
}

; Function Attrs: nounwind uwtable
define i32 @If_ManImproveNodeFaninCost(ptr noundef %0, ptr noundef %1) #0 {
  %3 = alloca ptr, align 8
  %4 = alloca ptr, align 8
  %5 = alloca i32, align 4
  store ptr %0, ptr %3, align 8, !tbaa !3
  store ptr %1, ptr %4, align 8, !tbaa !41
  call void @llvm.lifetime.start.p0(i64 4, ptr %5) #9
  store i32 0, ptr %5, align 4, !tbaa !38
  %6 = load ptr, ptr %4, align 8, !tbaa !41
  %7 = getelementptr inbounds nuw %struct.If_Obj_t_, ptr %6, i32 0, i32 3
  %8 = load i32, ptr %7, align 4, !tbaa !47
  %9 = icmp eq i32 %8, 0
  br i1 %9, label %10, label %13

10:                                               ; preds = %2
  %11 = load i32, ptr %5, align 4, !tbaa !38
  %12 = add nsw i32 %11, -1
  store i32 %12, ptr %5, align 4, !tbaa !38
  br label %13

13:                                               ; preds = %10, %2
  %14 = load ptr, ptr %4, align 8, !tbaa !41
  %15 = call ptr @If_ObjFanin0(ptr noundef %14)
  %16 = load i32, ptr %15, align 8
  %17 = lshr i32 %16, 8
  %18 = and i32 %17, 1
  %19 = icmp ne i32 %18, 0
  br i1 %19, label %29, label %20

20:                                               ; preds = %13
  %21 = load ptr, ptr %4, align 8, !tbaa !41
  %22 = call ptr @If_ObjFanin0(ptr noundef %21)
  %23 = getelementptr inbounds nuw %struct.If_Obj_t_, ptr %22, i32 0, i32 3
  %24 = load i32, ptr %23, align 4, !tbaa !47
  %25 = icmp eq i32 %24, 0
  br i1 %25, label %26, label %29

26:                                               ; preds = %20
  %27 = load i32, ptr %5, align 4, !tbaa !38
  %28 = add nsw i32 %27, 1
  store i32 %28, ptr %5, align 4, !tbaa !38
  br label %29

29:                                               ; preds = %26, %20, %13
  %30 = load ptr, ptr %4, align 8, !tbaa !41
  %31 = call ptr @If_ObjFanin1(ptr noundef %30)
  %32 = load i32, ptr %31, align 8
  %33 = lshr i32 %32, 8
  %34 = and i32 %33, 1
  %35 = icmp ne i32 %34, 0
  br i1 %35, label %45, label %36

36:                                               ; preds = %29
  %37 = load ptr, ptr %4, align 8, !tbaa !41
  %38 = call ptr @If_ObjFanin1(ptr noundef %37)
  %39 = getelementptr inbounds nuw %struct.If_Obj_t_, ptr %38, i32 0, i32 3
  %40 = load i32, ptr %39, align 4, !tbaa !47
  %41 = icmp eq i32 %40, 0
  br i1 %41, label %42, label %45

42:                                               ; preds = %36
  %43 = load i32, ptr %5, align 4, !tbaa !38
  %44 = add nsw i32 %43, 1
  store i32 %44, ptr %5, align 4, !tbaa !38
  br label %45

45:                                               ; preds = %42, %36, %29
  %46 = load i32, ptr %5, align 4, !tbaa !38
  call void @llvm.lifetime.end.p0(i64 4, ptr %5) #9
  ret i32 %46
}