; Function Attrs: mustprogress nofree norecurse nosync nounwind willreturn memory(read, inaccessiblemem: none) uwtable
define range(i32 -1, 3) i32 @If_ManImproveNodeFaninCost(ptr noundef readnone captures(none) %0, ptr noundef readonly captures(none) %1) local_unnamed_addr #5 {
  %3 = getelementptr inbounds nuw i8, ptr %1, i64 12
  %4 = load i32, ptr %3, align 4, !tbaa !40
  %5 = icmp eq i32 %4, 0
  %spec.select = sext i1 %5 to i32
  %6 = getelementptr i8, ptr %1, i64 24
  %.val11 = load ptr, ptr %6, align 8, !tbaa !45
  %7 = load i32, ptr %.val11, align 8
  %8 = and i32 %7, 256
  %.not = icmp eq i32 %8, 0
  br i1 %.not, label %9, label %14

9:                                                ; preds = %2
  %10 = getelementptr inbounds nuw i8, ptr %.val11, i64 12
  %11 = load i32, ptr %10, align 4, !tbaa !40
  %12 = icmp eq i32 %11, 0
  %not. = xor i1 %5, true
  %13 = zext i1 %not. to i32
  %spec.select9 = select i1 %12, i32 %13, i32 %spec.select
  br label %14

14:                                               ; preds = %9, %2
  %.1 = phi i32 [ %spec.select, %2 ], [ %spec.select9, %9 ]
  %15 = getelementptr i8, ptr %1, i64 32
  %.val13 = load ptr, ptr %15, align 8, !tbaa !46
  %16 = load i32, ptr %.val13, align 8
  %17 = and i32 %16, 256
  %.not8 = icmp eq i32 %17, 0
  br i1 %.not8, label %18, label %23

18:                                               ; preds = %14
  %19 = getelementptr inbounds nuw i8, ptr %.val13, i64 12
  %20 = load i32, ptr %19, align 4, !tbaa !40
  %21 = icmp eq i32 %20, 0
  %22 = zext i1 %21 to i32
  %spec.select10 = add nsw i32 %.1, %22
  br label %23

23:                                               ; preds = %18, %14
  %.2 = phi i32 [ %.1, %14 ], [ %spec.select10, %18 ]
  ret i32 %.2
}